; Function Attrs: nounwind uwtable
define dso_local nonnull ptr @expr_yy_create_buffer(ptr noundef %0, i32 noundef %1, ptr noundef captures(none) %2) local_unnamed_addr #0 {
  %4 = tail call noalias noundef dereferenceable_or_null(64) ptr @malloc(i64 noundef 64) #29
  %.not = icmp eq ptr %4, null
  br i1 %.not, label %5, label %6

5:                                                ; preds = %3
  tail call fastcc void @yy_fatal_error(ptr noundef nonnull @.str.5) #30
  unreachable

6:                                                ; preds = %3
  %7 = getelementptr inbounds nuw i8, ptr %4, i64 24
  store i32 %1, ptr %7, align 8
  %8 = add i32 %1, 2
  %9 = sext i32 %8 to i64
  %10 = tail call noalias noundef ptr @malloc(i64 noundef %9) #29
  %11 = getelementptr inbounds nuw i8, ptr %4, i64 8
  store ptr %10, ptr %11, align 8
  %.not14 = icmp eq ptr %10, null
  br i1 %.not14, label %12, label %13

12:                                               ; preds = %6
  tail call fastcc void @yy_fatal_error(ptr noundef nonnull @.str.5) #30
  unreachable

13:                                               ; preds = %6
  %14 = getelementptr inbounds nuw i8, ptr %4, i64 32
  store i32 1, ptr %14, align 8
  %15 = tail call ptr @__errno_location() #33
  %16 = load i32, ptr %15, align 4
  %17 = getelementptr inbounds nuw i8, ptr %4, i64 28
  store i32 0, ptr %17, align 4
  store i8 0, ptr %10, align 1
  %18 = getelementptr inbounds nuw i8, ptr %10, i64 1
  store i8 0, ptr %18, align 1
  %19 = getelementptr inbounds nuw i8, ptr %4, i64 16
  store ptr %10, ptr %19, align 8
  %20 = getelementptr inbounds nuw i8, ptr %4, i64 40
  store i32 1, ptr %20, align 8
  %21 = getelementptr inbounds nuw i8, ptr %4, i64 56
  store i32 0, ptr %21, align 8
  %22 = getelementptr inbounds nuw i8, ptr %2, i64 40
  %23 = load ptr, ptr %22, align 8
  %.not15.i.i = icmp eq ptr %23, null
  br i1 %.not15.i.i, label %expr_yy_flush_buffer.exit.i, label %24

24:                                               ; preds = %13
  %25 = getelementptr inbounds nuw i8, ptr %2, i64 24
  %26 = load i64, ptr %25, align 8
  %27 = getelementptr inbounds nuw ptr, ptr %23, i64 %26
  %28 = load ptr, ptr %27, align 8
  %29 = icmp eq ptr %4, %28
  br i1 %29, label %30, label %45

30:                                               ; preds = %24
  %31 = getelementptr inbounds nuw i8, ptr %28, i64 28
  %32 = load i32, ptr %31, align 4
  %33 = getelementptr inbounds nuw i8, ptr %2, i64 52
  store i32 %32, ptr %33, align 4
  %34 = load ptr, ptr %27, align 8
  %35 = getelementptr inbounds nuw i8, ptr %34, i64 16
  %36 = load ptr, ptr %35, align 8
  %37 = getelementptr inbounds nuw i8, ptr %2, i64 64
  store ptr %36, ptr %37, align 8
  %38 = getelementptr inbounds nuw i8, ptr %2, i64 128
  store ptr %36, ptr %38, align 8
  %39 = load ptr, ptr %27, align 8
  %40 = load ptr, ptr %39, align 8
  %41 = getelementptr inbounds nuw i8, ptr %2, i64 8
  store ptr %40, ptr %41, align 8
  %42 = load i8, ptr %36, align 1
  %43 = getelementptr inbounds nuw i8, ptr %2, i64 48
  store i8 %42, ptr %43, align 8
  br label %45

expr_yy_flush_buffer.exit.i:                      ; preds = %13
  store ptr %0, ptr %4, align 8
  %44 = getelementptr inbounds nuw i8, ptr %4, i64 52
  store i32 1, ptr %44, align 4
  br label %.thread.i

45:                                               ; preds = %30, %24
  store ptr %0, ptr %4, align 8
  %46 = getelementptr inbounds nuw i8, ptr %4, i64 52
  store i32 1, ptr %46, align 4
  %47 = getelementptr inbounds nuw i8, ptr %2, i64 24
  %48 = load i64, ptr %47, align 8
  %49 = getelementptr inbounds nuw ptr, ptr %23, i64 %48
  %50 = load ptr, ptr %49, align 8
  %.not14.i = icmp eq ptr %4, %50
  br i1 %.not14.i, label %expr_yy_init_buffer.exit, label %.thread.i

.thread.i:                                        ; preds = %expr_yy_flush_buffer.exit.i, %45
  %51 = getelementptr inbounds nuw i8, ptr %4, i64 44
  store i32 1, ptr %51, align 4
  %52 = getelementptr inbounds nuw i8, ptr %4, i64 48
  store i32 0, ptr %52, align 8
  br label %expr_yy_init_buffer.exit

expr_yy_init_buffer.exit:                         ; preds = %45, %.thread.i
  %53 = getelementptr inbounds nuw i8, ptr %4, i64 36
  store i32 0, ptr %53, align 4
  store i32 %16, ptr %15, align 4
  ret ptr %4
}